target datalayout = "e-m:e-p270:32:32-p271:32:32-p272:64:64-i64:64-i128:128-f80:128-n8:16:32:64-S128"
target triple = "x86_64-pc-linux-gnu"

%struct.expert_field = type { i32, i32 }
%struct._packet_info = type { ptr, ptr, i32, i32, %struct.nstime_t, %struct.nstime_t, %struct.nstime_t, i8, ptr, ptr, ptr, ptr, %struct._address, %struct._address, %struct._address, %struct._address, %struct._address, %struct._address, i32, ptr, i8, [3 x i8], %struct.anon, i32, i32, i32, i32, ptr, i8, ptr, ptr, i16, i16, i32, i32, i16, i32, i32, ptr, ptr, ptr, i8, i8, i16, i16, i16, i32, i16, i16, ptr, ptr, ptr, ptr, ptr, i32, i32 }
%struct.nstime_t = type { i64, i32 }
%struct._address = type { i32, i32, ptr, ptr }
%struct.anon = type { i8, [3 x i8] }

@ei_nas_eps_extraneous_data = internal global %struct.expert_field zeroinitializer, align 4
@ei_nas_eps_missing_mandatory_elemen = internal global %struct.expert_field zeroinitializer, align 4
@.str.952 = private unnamed_addr constant [1 x i8] zeroinitializer, align 1
@.str.959 = private unnamed_addr constant [62 x i8] c"Missing Mandatory element %s%s, rest of dissection is suspect\00", align 1

; Function Attrs: null_pointer_is_valid sspstrong uwtable
define internal void @nas_esm_mod_eps_bearer_ctx_rej(ptr noundef %0, ptr noundef %1, ptr noundef %2, i32 noundef %3, i32 noundef %4) #1 {
  %6 = alloca ptr, align 8
  %7 = alloca ptr, align 8
  %8 = alloca ptr, align 8
  %9 = alloca i32, align 4
  %10 = alloca i32, align 4
  %11 = alloca i32, align 4
  %12 = alloca i32, align 4
  %13 = alloca i32, align 4
  %14 = alloca i32, align 4
  store ptr %0, ptr %6, align 8
  store ptr %1, ptr %7, align 8
  store ptr %2, ptr %8, align 8
  store i32 %3, ptr %9, align 4
  store i32 %4, ptr %10, align 4
  call void @llvm.lifetime.start.p0(i64 4, ptr %11) #10
  call void @llvm.lifetime.start.p0(i64 4, ptr %12) #10
  call void @llvm.lifetime.start.p0(i64 4, ptr %13) #10
  %15 = load i32, ptr %9, align 4
  store i32 %15, ptr %11, align 4
  %16 = load i32, ptr %10, align 4
  store i32 %16, ptr %13, align 4
  %17 = load ptr, ptr %8, align 8
  %18 = getelementptr inbounds nuw %struct._packet_info, ptr %17, i32 0, i32 46
  store i32 0, ptr %18, align 8
  %19 = load i32, ptr %13, align 4
  %20 = icmp sgt i32 %19, 0
  br i1 %20, label %21, label %36

21:                                               ; preds = %5
  %22 = load ptr, ptr %6, align 8
  %23 = load ptr, ptr %7, align 8
  %24 = load ptr, ptr %8, align 8
  %25 = load i32, ptr %11, align 4
  %26 = call zeroext i16 @elem_v(ptr noundef %22, ptr noundef %23, ptr noundef %24, i32 noundef 11, i32 noundef 4, i32 noundef %25, ptr noundef null)
  %27 = zext i16 %26 to i32
  store i32 %27, ptr %12, align 4
  %28 = icmp ugt i32 %27, 0
  br i1 %28, label %29, label %36

29:                                               ; preds = %21
  %30 = load i32, ptr %12, align 4
  %31 = load i32, ptr %11, align 4
  %32 = add i32 %31, %30
  store i32 %32, ptr %11, align 4
  %33 = load i32, ptr %12, align 4
  %34 = load i32, ptr %13, align 4
  %35 = sub i32 %34, %33
  store i32 %35, ptr %13, align 4
  br label %43

36:                                               ; preds = %21, %5
  %37 = load ptr, ptr %7, align 8
  %38 = load ptr, ptr %8, align 8
  %39 = load ptr, ptr %6, align 8
  %40 = load i32, ptr %11, align 4
  %41 = call ptr @get_gsm_a_msg_string(i32 noundef 11, i32 noundef 4)
  %42 = call ptr (ptr, ptr, ptr, ptr, i32, i32, ptr, ...) @proto_tree_add_expert_format(ptr noundef %37, ptr noundef %38, ptr noundef @ei_nas_eps_missing_mandatory_elemen, ptr noundef %39, i32 noundef %40, i32 noundef 0, ptr noundef @.str.959, ptr noundef %41, ptr noundef @.str.952)
  br label %43

43:                                               ; preds = %36, %29
  %44 = load i32, ptr %13, align 4
  %45 = icmp sle i32 %44, 0
  br i1 %45, label %46, label %47

46:                                               ; preds = %43
  store i32 1, ptr %14, align 4
  br label %119

47:                                               ; preds = %43
  %48 = load ptr, ptr %6, align 8
  %49 = load ptr, ptr %7, align 8
  %50 = load ptr, ptr %8, align 8
  %51 = load i32, ptr %11, align 4
  %52 = load i32, ptr %13, align 4
  %53 = call zeroext i16 @elem_tlv(ptr noundef %48, ptr noundef %49, ptr noundef %50, i8 noundef zeroext 39, i32 noundef 5, i32 noundef 45, i32 noundef %51, i32 noundef %52, ptr noundef null)
  %54 = zext i16 %53 to i32
  store i32 %54, ptr %12, align 4
  %55 = icmp ugt i32 %54, 0
  br i1 %55, label %56, label %63

56:                                               ; preds = %47
  %57 = load i32, ptr %12, align 4
  %58 = load i32, ptr %11, align 4
  %59 = add i32 %58, %57
  store i32 %59, ptr %11, align 4
  %60 = load i32, ptr %12, align 4
  %61 = load i32, ptr %13, align 4
  %62 = sub i32 %61, %60
  store i32 %62, ptr %13, align 4
  br label %63

63:                                               ; preds = %56, %47
  %64 = load i32, ptr %13, align 4
  %65 = icmp sle i32 %64, 0
  br i1 %65, label %66, label %67

66:                                               ; preds = %63
  store i32 1, ptr %14, align 4
  br label %119

67:                                               ; preds = %63
  %68 = load ptr, ptr %6, align 8
  %69 = load ptr, ptr %7, align 8
  %70 = load ptr, ptr %8, align 8
  %71 = load i32, ptr %11, align 4
  %72 = load i32, ptr %13, align 4
  %73 = call zeroext i16 @elem_tlv(ptr noundef %68, ptr noundef %69, ptr noundef %70, i8 noundef zeroext 51, i32 noundef 11, i32 noundef 21, i32 noundef %71, i32 noundef %72, ptr noundef null)
  %74 = zext i16 %73 to i32
  store i32 %74, ptr %12, align 4
  %75 = icmp ugt i32 %74, 0
  br i1 %75, label %76, label %83

76:                                               ; preds = %67
  %77 = load i32, ptr %12, align 4
  %78 = load i32, ptr %11, align 4
  %79 = add i32 %78, %77
  store i32 %79, ptr %11, align 4
  %80 = load i32, ptr %12, align 4
  %81 = load i32, ptr %13, align 4
  %82 = sub i32 %81, %80
  store i32 %82, ptr %13, align 4
  br label %83

83:                                               ; preds = %76, %67
  %84 = load i32, ptr %13, align 4
  %85 = icmp sle i32 %84, 0
  br i1 %85, label %86, label %87

86:                                               ; preds = %83
  store i32 1, ptr %14, align 4
  br label %119

87:                                               ; preds = %83
  %88 = load ptr, ptr %6, align 8
  %89 = load ptr, ptr %7, align 8
  %90 = load ptr, ptr %8, align 8
  %91 = load i32, ptr %11, align 4
  %92 = load i32, ptr %13, align 4
  %93 = call zeroext i16 @elem_tlv_e(ptr noundef %88, ptr noundef %89, ptr noundef %90, i8 noundef zeroext 123, i32 noundef 11, i32 noundef 28, i32 noundef %91, i32 noundef %92, ptr noundef null)
  %94 = zext i16 %93 to i32
  store i32 %94, ptr %12, align 4
  %95 = icmp ugt i32 %94, 0
  br i1 %95, label %96, label %103

96:                                               ; preds = %87
  %97 = load i32, ptr %12, align 4
  %98 = load i32, ptr %11, align 4
  %99 = add i32 %98, %97
  store i32 %99, ptr %11, align 4
  %100 = load i32, ptr %12, align 4
  %101 = load i32, ptr %13, align 4
  %102 = sub i32 %101, %100
  store i32 %102, ptr %13, align 4
  br label %103

103:                                              ; preds = %96, %87
  %104 = load i32, ptr %13, align 4
  %105 = icmp ugt i32 %104, 0
  br i1 %105, label %106, label %118

106:                                              ; preds = %103
  %107 = load ptr, ptr %7, align 8
  %108 = load ptr, ptr %8, align 8
  %109 = load ptr, ptr %6, align 8
  %110 = load i32, ptr %11, align 4
  %111 = load i32, ptr %13, align 4
  %112 = sub i32 %111, 0
  %113 = call ptr @proto_tree_add_expert(ptr noundef %107, ptr noundef %108, ptr noundef @ei_nas_eps_extraneous_data, ptr noundef %109, i32 noundef %110, i32 noundef %112)
  %114 = load i32, ptr %13, align 4
  %115 = sub i32 %114, 0
  %116 = load i32, ptr %11, align 4
  %117 = add i32 %116, %115
  store i32 %117, ptr %11, align 4
  br label %118

118:                                              ; preds = %106, %103
  store i32 0, ptr %14, align 4
  br label %119

119:                                              ; preds = %118, %86, %66, %46
  call void @llvm.lifetime.end.p0(i64 4, ptr %13) #10
  call void @llvm.lifetime.end.p0(i64 4, ptr %12) #10
  call void @llvm.lifetime.end.p0(i64 4, ptr %11) #10
  %120 = load i32, ptr %14, align 4
  switch i32 %120, label %122 [
    i32 0, label %121
    i32 1, label %121
  ]

121:                                              ; preds = %119, %119
  ret void

122:                                              ; preds = %119
  unreachable
}